; Function Attrs: nounwind uwtable
define ptr @l___private_Lean_Elab_Tactic_BVDecide_Frontend_Normalize_Enums_0__Lean_Elab_Tactic_BVDecide_Frontend_Normalize_getMatchEqCondForAux_handleSimpleEnum___lambda__2(ptr noundef %0, ptr noundef %1, ptr noundef %2, ptr noundef %3, ptr noundef %4, ptr noundef %5, ptr noundef %6) #1 {
  %8 = getelementptr inbounds nuw i8, ptr %1, i64 16
  %9 = load ptr, ptr %8, align 8, !tbaa !11
  %10 = ptrtoint ptr %9 to i64
  %11 = and i64 %10, 1
  %.not = icmp eq i64 %11, 0
  br i1 %.not, label %12, label %lean_inc.exit

12:                                               ; preds = %7
  %.val.i = load i32, ptr %9, align 4, !tbaa !4
  %13 = icmp sgt i32 %.val.i, 0
  br i1 %13, label %14, label %16, !prof !13

14:                                               ; preds = %12
  %15 = add nuw i32 %.val.i, 1
  store i32 %15, ptr %9, align 4, !tbaa !4
  br label %lean_inc.exit

16:                                               ; preds = %12
  %.not.i14 = icmp eq i32 %.val.i, 0
  br i1 %.not.i14, label %lean_inc.exit, label %17

17:                                               ; preds = %16
  tail call void @lean_inc_ref_cold(ptr noundef nonnull %9) #7
  br label %lean_inc.exit

lean_inc.exit:                                    ; preds = %17, %16, %14, %7
  %18 = ptrtoint ptr %1 to i64
  %19 = and i64 %18, 1
  %.not15 = icmp eq i64 %19, 0
  br i1 %.not15, label %20, label %lean_dec.exit

20:                                               ; preds = %lean_inc.exit
  %21 = load i32, ptr %1, align 4, !tbaa !4
  %22 = icmp sgt i32 %21, 1
  br i1 %22, label %23, label %25, !prof !13

23:                                               ; preds = %20
  %24 = add nsw i32 %21, -1
  store i32 %24, ptr %1, align 4, !tbaa !4
  br label %lean_dec.exit

25:                                               ; preds = %20
  %.not.i = icmp eq i32 %21, 0
  br i1 %.not.i, label %lean_dec.exit, label %26

26:                                               ; preds = %25
  tail call void @lean_dec_ref_cold(ptr noundef nonnull %1) #7
  br label %lean_dec.exit

lean_dec.exit:                                    ; preds = %26, %25, %23, %lean_inc.exit
  %27 = load ptr, ptr @l_List_mapTR_loop___at___private_Lean_Elab_Tactic_BVDecide_Frontend_Normalize_Enums_0__Lean_Elab_Tactic_BVDecide_Frontend_Normalize_getMatchEqCondForAux_handleSimpleEnum___spec__2___closed__3, align 8, !tbaa !11
  %28 = tail call ptr @l_Lean_Expr_const___override(ptr noundef %27, ptr noundef %0) #7
  %29 = tail call ptr @l_Lean_Expr_app___override(ptr noundef %9, ptr noundef %28) #7
  %30 = tail call ptr @l_Lean_Meta_mkEqRefl(ptr noundef %29, ptr noundef %2, ptr noundef %3, ptr noundef %4, ptr noundef %5, ptr noundef %6) #7
  ret ptr %30
}